target datalayout = "e-m:e-p270:32:32-p271:32:32-p272:64:64-i64:64-i128:128-f80:128-n8:16:32:64-S128"
target triple = "x86_64-pc-linux-gnu"

@uni_DCtab_lum_len = internal global [512 x i8] zeroinitializer, align 16
@uni_DCtab_chrom_len = internal global [512 x i8] zeroinitializer, align 16
@uni_DCtab_lum_bits = internal global [512 x i16] zeroinitializer, align 16
@uni_DCtab_chrom_bits = internal global [512 x i16] zeroinitializer, align 16
@ff_mpeg4_DCtab_lum = external constant [13 x [2 x i8]], align 16
@ff_mpeg4_DCtab_chrom = external constant [13 x [2 x i8]], align 16

; Function Attrs: cold nounwind optsize uwtable
define internal void @init_uni_dc_tab() #5 {
  %1 = alloca i32, align 4
  %2 = alloca i32, align 4
  %3 = alloca i32, align 4
  %4 = alloca i32, align 4
  %5 = alloca i32, align 4
  %6 = alloca i32, align 4
  call void @llvm.lifetime.start.p0(i64 4, ptr %1) #10
  call void @llvm.lifetime.start.p0(i64 4, ptr %2) #10
  call void @llvm.lifetime.start.p0(i64 4, ptr %3) #10
  store i32 -256, ptr %1, align 4, !tbaa !49
  br label %7

7:                                                ; preds = %128, %0
  %8 = load i32, ptr %1, align 4, !tbaa !49
  %9 = icmp slt i32 %8, 256
  br i1 %9, label %10, label %131

10:                                               ; preds = %7
  call void @llvm.lifetime.start.p0(i64 4, ptr %4) #10
  call void @llvm.lifetime.start.p0(i64 4, ptr %5) #10
  call void @llvm.lifetime.start.p0(i64 4, ptr %6) #10
  store i32 0, ptr %4, align 4, !tbaa !49
  %11 = load i32, ptr %1, align 4, !tbaa !49
  %12 = call i32 @llvm.abs.i32(i32 %11, i1 true)
  store i32 %12, ptr %5, align 4, !tbaa !49
  br label %13

13:                                               ; preds = %16, %10
  %14 = load i32, ptr %5, align 4, !tbaa !49
  %15 = icmp ne i32 %14, 0
  br i1 %15, label %16, label %21

16:                                               ; preds = %13
  %17 = load i32, ptr %5, align 4, !tbaa !49
  %18 = ashr i32 %17, 1
  store i32 %18, ptr %5, align 4, !tbaa !49
  %19 = load i32, ptr %4, align 4, !tbaa !49
  %20 = add nsw i32 %19, 1
  store i32 %20, ptr %4, align 4, !tbaa !49
  br label %13, !llvm.loop !234

21:                                               ; preds = %13
  %22 = load i32, ptr %1, align 4, !tbaa !49
  %23 = icmp slt i32 %22, 0
  br i1 %23, label %24, label %31

24:                                               ; preds = %21
  %25 = load i32, ptr %1, align 4, !tbaa !49
  %26 = sub nsw i32 0, %25
  %27 = load i32, ptr %4, align 4, !tbaa !49
  %28 = shl i32 1, %27
  %29 = sub nsw i32 %28, 1
  %30 = xor i32 %26, %29
  store i32 %30, ptr %6, align 4, !tbaa !49
  br label %33

31:                                               ; preds = %21
  %32 = load i32, ptr %1, align 4, !tbaa !49
  store i32 %32, ptr %6, align 4, !tbaa !49
  br label %33

33:                                               ; preds = %31, %24
  %34 = load i32, ptr %4, align 4, !tbaa !49
  %35 = sext i32 %34 to i64
  %36 = getelementptr inbounds [13 x [2 x i8]], ptr @ff_mpeg4_DCtab_lum, i64 0, i64 %35
  %37 = getelementptr inbounds [2 x i8], ptr %36, i64 0, i64 0
  %38 = load i8, ptr %37, align 2, !tbaa !52
  %39 = zext i8 %38 to i32
  store i32 %39, ptr %2, align 4, !tbaa !49
  %40 = load i32, ptr %4, align 4, !tbaa !49
  %41 = sext i32 %40 to i64
  %42 = getelementptr inbounds [13 x [2 x i8]], ptr @ff_mpeg4_DCtab_lum, i64 0, i64 %41
  %43 = getelementptr inbounds [2 x i8], ptr %42, i64 0, i64 1
  %44 = load i8, ptr %43, align 1, !tbaa !52
  %45 = zext i8 %44 to i32
  store i32 %45, ptr %3, align 4, !tbaa !49
  %46 = load i32, ptr %4, align 4, !tbaa !49
  %47 = icmp sgt i32 %46, 0
  br i1 %47, label %48, label %68

48:                                               ; preds = %33
  %49 = load i32, ptr %4, align 4, !tbaa !49
  %50 = load i32, ptr %2, align 4, !tbaa !49
  %51 = shl i32 %50, %49
  store i32 %51, ptr %2, align 4, !tbaa !49
  %52 = load i32, ptr %6, align 4, !tbaa !49
  %53 = load i32, ptr %2, align 4, !tbaa !49
  %54 = or i32 %53, %52
  store i32 %54, ptr %2, align 4, !tbaa !49
  %55 = load i32, ptr %4, align 4, !tbaa !49
  %56 = load i32, ptr %3, align 4, !tbaa !49
  %57 = add nsw i32 %56, %55
  store i32 %57, ptr %3, align 4, !tbaa !49
  %58 = load i32, ptr %4, align 4, !tbaa !49
  %59 = icmp sgt i32 %58, 8
  br i1 %59, label %60, label %67

60:                                               ; preds = %48
  %61 = load i32, ptr %2, align 4, !tbaa !49
  %62 = shl i32 %61, 1
  store i32 %62, ptr %2, align 4, !tbaa !49
  %63 = load i32, ptr %2, align 4, !tbaa !49
  %64 = or i32 %63, 1
  store i32 %64, ptr %2, align 4, !tbaa !49
  %65 = load i32, ptr %3, align 4, !tbaa !49
  %66 = add nsw i32 %65, 1
  store i32 %66, ptr %3, align 4, !tbaa !49
  br label %67

67:                                               ; preds = %60, %48
  br label %68

68:                                               ; preds = %67, %33
  %69 = load i32, ptr %2, align 4, !tbaa !49
  %70 = trunc i32 %69 to i16
  %71 = load i32, ptr %1, align 4, !tbaa !49
  %72 = add nsw i32 %71, 256
  %73 = sext i32 %72 to i64
  %74 = getelementptr inbounds [512 x i16], ptr @uni_DCtab_lum_bits, i64 0, i64 %73
  store i16 %70, ptr %74, align 2, !tbaa !57
  %75 = load i32, ptr %3, align 4, !tbaa !49
  %76 = trunc i32 %75 to i8
  %77 = load i32, ptr %1, align 4, !tbaa !49
  %78 = add nsw i32 %77, 256
  %79 = sext i32 %78 to i64
  %80 = getelementptr inbounds [512 x i8], ptr @uni_DCtab_lum_len, i64 0, i64 %79
  store i8 %76, ptr %80, align 1, !tbaa !52
  %81 = load i32, ptr %4, align 4, !tbaa !49
  %82 = sext i32 %81 to i64
  %83 = getelementptr inbounds [13 x [2 x i8]], ptr @ff_mpeg4_DCtab_chrom, i64 0, i64 %82
  %84 = getelementptr inbounds [2 x i8], ptr %83, i64 0, i64 0
  %85 = load i8, ptr %84, align 2, !tbaa !52
  %86 = zext i8 %85 to i32
  store i32 %86, ptr %2, align 4, !tbaa !49
  %87 = load i32, ptr %4, align 4, !tbaa !49
  %88 = sext i32 %87 to i64
  %89 = getelementptr inbounds [13 x [2 x i8]], ptr @ff_mpeg4_DCtab_chrom, i64 0, i64 %88
  %90 = getelementptr inbounds [2 x i8], ptr %89, i64 0, i64 1
  %91 = load i8, ptr %90, align 1, !tbaa !52
  %92 = zext i8 %91 to i32
  store i32 %92, ptr %3, align 4, !tbaa !49
  %93 = load i32, ptr %4, align 4, !tbaa !49
  %94 = icmp sgt i32 %93, 0
  br i1 %94, label %95, label %115

95:                                               ; preds = %68
  %96 = load i32, ptr %4, align 4, !tbaa !49
  %97 = load i32, ptr %2, align 4, !tbaa !49
  %98 = shl i32 %97, %96
  store i32 %98, ptr %2, align 4, !tbaa !49
  %99 = load i32, ptr %6, align 4, !tbaa !49
  %100 = load i32, ptr %2, align 4, !tbaa !49
  %101 = or i32 %100, %99
  store i32 %101, ptr %2, align 4, !tbaa !49
  %102 = load i32, ptr %4, align 4, !tbaa !49
  %103 = load i32, ptr %3, align 4, !tbaa !49
  %104 = add nsw i32 %103, %102
  store i32 %104, ptr %3, align 4, !tbaa !49
  %105 = load i32, ptr %4, align 4, !tbaa !49
  %106 = icmp sgt i32 %105, 8
  br i1 %106, label %107, label %114

107:                                              ; preds = %95
  %108 = load i32, ptr %2, align 4, !tbaa !49
  %109 = shl i32 %108, 1
  store i32 %109, ptr %2, align 4, !tbaa !49
  %110 = load i32, ptr %2, align 4, !tbaa !49
  %111 = or i32 %110, 1
  store i32 %111, ptr %2, align 4, !tbaa !49
  %112 = load i32, ptr %3, align 4, !tbaa !49
  %113 = add nsw i32 %112, 1
  store i32 %113, ptr %3, align 4, !tbaa !49
  br label %114

114:                                              ; preds = %107, %95
  br label %115

115:                                              ; preds = %114, %68
  %116 = load i32, ptr %2, align 4, !tbaa !49
  %117 = trunc i32 %116 to i16
  %118 = load i32, ptr %1, align 4, !tbaa !49
  %119 = add nsw i32 %118, 256
  %120 = sext i32 %119 to i64
  %121 = getelementptr inbounds [512 x i16], ptr @uni_DCtab_chrom_bits, i64 0, i64 %120
  store i16 %117, ptr %121, align 2, !tbaa !57
  %122 = load i32, ptr %3, align 4, !tbaa !49
  %123 = trunc i32 %122 to i8
  %124 = load i32, ptr %1, align 4, !tbaa !49
  %125 = add nsw i32 %124, 256
  %126 = sext i32 %125 to i64
  %127 = getelementptr inbounds [512 x i8], ptr @uni_DCtab_chrom_len, i64 0, i64 %126
  store i8 %123, ptr %127, align 1, !tbaa !52
  call void @llvm.lifetime.end.p0(i64 4, ptr %6) #10
  call void @llvm.lifetime.end.p0(i64 4, ptr %5) #10
  call void @llvm.lifetime.end.p0(i64 4, ptr %4) #10
  br label %128

128:                                              ; preds = %115
  %129 = load i32, ptr %1, align 4, !tbaa !49
  %130 = add nsw i32 %129, 1
  store i32 %130, ptr %1, align 4, !tbaa !49
  br label %7, !llvm.loop !235

131:                                              ; preds = %7
  call void @llvm.lifetime.end.p0(i64 4, ptr %3) #10
  call void @llvm.lifetime.end.p0(i64 4, ptr %2) #10
  call void @llvm.lifetime.end.p0(i64 4, ptr %1) #10
  ret void
}