; Function Attrs: cold nofree norecurse nosync nounwind optsize memory(write, argmem: none, inaccessiblemem: none) uwtable
define internal fastcc void @init_uni_dc_tab() unnamed_addr #8 {
  br label %1

1:                                                ; preds = %0, %56
  %indvars.iv = phi i64 [ -256, %0 ], [ %indvars.iv.next, %56 ]
  %2 = trunc nsw i64 %indvars.iv to i32
  %3 = icmp eq i64 %indvars.iv, 0
  br i1 %3, label %._crit_edge, label %.lr.ph.preheader

.lr.ph.preheader:                                 ; preds = %1
  %4 = tail call i32 @llvm.abs.i32(i32 %2, i1 true)
  br label %.lr.ph

.lr.ph:                                           ; preds = %.lr.ph.preheader, %.lr.ph
  %.04453 = phi i32 [ %5, %.lr.ph ], [ %4, %.lr.ph.preheader ]
  %.04552 = phi i32 [ %6, %.lr.ph ], [ 0, %.lr.ph.preheader ]
  %5 = lshr i32 %.04453, 1
  %6 = add nuw nsw i32 %.04552, 1
  %.not = icmp samesign ult i32 %.04453, 2
  br i1 %.not, label %._crit_edge, label %.lr.ph, !llvm.loop !217

._crit_edge:                                      ; preds = %.lr.ph, %1
  %.045.lcssa = phi i32 [ 0, %1 ], [ %6, %.lr.ph ]
  %7 = zext nneg i32 %.045.lcssa to i64
  %8 = getelementptr inbounds nuw [13 x [2 x i8]], ptr @ff_mpeg4_DCtab_lum, i64 0, i64 %7
  %9 = load i8, ptr %8, align 2, !tbaa !49
  %10 = getelementptr inbounds nuw i8, ptr %8, i64 1
  %11 = load i8, ptr %10, align 1, !tbaa !49
  %.not50 = icmp eq i32 %.045.lcssa, 0
  br i1 %.not50, label %41, label %12

12:                                               ; preds = %._crit_edge
  %13 = zext i8 %11 to i32
  %14 = zext i8 %9 to i32
  %15 = icmp slt i64 %indvars.iv, 0
  %notmask = shl nsw i32 -1, %.045.lcssa
  %16 = trunc i64 %indvars.iv to i32
  %17 = add i32 %16, -1
  %18 = xor i32 %notmask, %17
  %.0 = select i1 %15, i32 %18, i32 %2
  %19 = shl i32 %14, %.045.lcssa
  %20 = or i32 %19, %.0
  %21 = add nuw nsw i32 %.045.lcssa, %13
  %22 = icmp samesign ugt i32 %.045.lcssa, 8
  %23 = shl i32 %20, 1
  %24 = or disjoint i32 %23, 1
  %.047.ph = select i1 %22, i32 %24, i32 %20
  %25 = zext i1 %22 to i32
  %.046.ph = add nuw nsw i32 %21, %25
  %26 = trunc i32 %.047.ph to i16
  %27 = add nsw i64 %indvars.iv, 256
  %28 = getelementptr inbounds [512 x i16], ptr @uni_DCtab_lum_bits, i64 0, i64 %27
  store i16 %26, ptr %28, align 2, !tbaa !54
  %29 = trunc i32 %.046.ph to i8
  %30 = getelementptr inbounds [512 x i8], ptr @uni_DCtab_lum_len, i64 0, i64 %27
  store i8 %29, ptr %30, align 1, !tbaa !49
  %31 = getelementptr inbounds nuw [13 x [2 x i8]], ptr @ff_mpeg4_DCtab_chrom, i64 0, i64 %7
  %32 = load i8, ptr %31, align 2, !tbaa !49
  %33 = zext i8 %32 to i32
  %34 = getelementptr inbounds nuw i8, ptr %31, i64 1
  %35 = load i8, ptr %34, align 1, !tbaa !49
  %36 = zext i8 %35 to i32
  %37 = shl i32 %33, %.045.lcssa
  %38 = or i32 %37, %.0
  %39 = add nuw nsw i32 %.045.lcssa, %36
  %40 = icmp samesign ugt i32 %.045.lcssa, 8
  br i1 %40, label %52, label %56

41:                                               ; preds = %._crit_edge
  %42 = zext i8 %9 to i16
  %43 = add nsw i64 %indvars.iv, 256
  %44 = getelementptr inbounds [512 x i16], ptr @uni_DCtab_lum_bits, i64 0, i64 %43
  store i16 %42, ptr %44, align 2, !tbaa !54
  %45 = getelementptr inbounds [512 x i8], ptr @uni_DCtab_lum_len, i64 0, i64 %43
  store i8 %11, ptr %45, align 1, !tbaa !49
  %46 = getelementptr inbounds nuw [13 x [2 x i8]], ptr @ff_mpeg4_DCtab_chrom, i64 0, i64 %7
  %47 = load i8, ptr %46, align 2, !tbaa !49
  %48 = zext i8 %47 to i32
  %49 = getelementptr inbounds nuw i8, ptr %46, i64 1
  %50 = load i8, ptr %49, align 1, !tbaa !49
  %51 = zext i8 %50 to i32
  br label %56

52:                                               ; preds = %12
  %53 = shl i32 %38, 1
  %54 = or disjoint i32 %53, 1
  %55 = add nuw nsw i32 %39, 1
  br label %56

56:                                               ; preds = %41, %12, %52
  %57 = phi i64 [ %27, %52 ], [ %27, %12 ], [ %43, %41 ]
  %.148 = phi i32 [ %54, %52 ], [ %38, %12 ], [ %48, %41 ]
  %.1 = phi i32 [ %55, %52 ], [ %39, %12 ], [ %51, %41 ]
  %58 = trunc i32 %.148 to i16
  %59 = getelementptr inbounds [512 x i16], ptr @uni_DCtab_chrom_bits, i64 0, i64 %57
  store i16 %58, ptr %59, align 2, !tbaa !54
  %60 = trunc i32 %.1 to i8
  %61 = getelementptr inbounds [512 x i8], ptr @uni_DCtab_chrom_len, i64 0, i64 %57
  store i8 %60, ptr %61, align 1, !tbaa !49
  %indvars.iv.next = add nsw i64 %indvars.iv, 1
  %exitcond.not = icmp eq i64 %indvars.iv.next, 256
  br i1 %exitcond.not, label %62, label %1, !llvm.loop !218

62:                                               ; preds = %56
  ret void
}